; Function Attrs: mustprogress nofree norecurse nosync nounwind willreturn memory(read, inaccessiblemem: none) uwtable
define hidden noundef zeroext i1 @_ZN3smt10theory_str13can_propagateEv(ptr noundef nonnull readonly align 8 captures(none) dereferenceable(1800) %0) unnamed_addr #13 align 2 {
  %2 = getelementptr inbounds nuw i8, ptr %0, i64 472
  %3 = load ptr, ptr %2, align 8, !tbaa !371
  %4 = icmp eq ptr %3, null
  br i1 %4, label %_ZNK6vectorIPN3smt5enodeELb0EjE5emptyEv.exit.thread, label %_ZNK6vectorIPN3smt5enodeELb0EjE5emptyEv.exit

_ZNK6vectorIPN3smt5enodeELb0EjE5emptyEv.exit:     ; preds = %1
  %5 = getelementptr inbounds i8, ptr %3, i64 -4
  %6 = load i32, ptr %5, align 4, !tbaa !336
  %7 = icmp eq i32 %6, 0
  br i1 %7, label %_ZNK6vectorIPN3smt5enodeELb0EjE5emptyEv.exit.thread, label %_ZNK15ref_vector_coreI4expr19ref_manager_wrapperIS0_11ast_managerEE5emptyEv.exit5

_ZNK6vectorIPN3smt5enodeELb0EjE5emptyEv.exit.thread: ; preds = %1, %_ZNK6vectorIPN3smt5enodeELb0EjE5emptyEv.exit
  %8 = getelementptr inbounds nuw i8, ptr %0, i64 480
  %9 = load ptr, ptr %8, align 8, !tbaa !371
  %10 = icmp eq ptr %9, null
  br i1 %10, label %_ZNK6vectorIPN3smt5enodeELb0EjE5emptyEv.exit1.thread, label %_ZNK6vectorIPN3smt5enodeELb0EjE5emptyEv.exit1

_ZNK6vectorIPN3smt5enodeELb0EjE5emptyEv.exit1:    ; preds = %_ZNK6vectorIPN3smt5enodeELb0EjE5emptyEv.exit.thread
  %11 = getelementptr inbounds i8, ptr %9, i64 -4
  %12 = load i32, ptr %11, align 4, !tbaa !336
  %13 = icmp eq i32 %12, 0
  br i1 %13, label %_ZNK6vectorIPN3smt5enodeELb0EjE5emptyEv.exit1.thread, label %_ZNK15ref_vector_coreI4expr19ref_manager_wrapperIS0_11ast_managerEE5emptyEv.exit5

_ZNK6vectorIPN3smt5enodeELb0EjE5emptyEv.exit1.thread: ; preds = %_ZNK6vectorIPN3smt5enodeELb0EjE5emptyEv.exit.thread, %_ZNK6vectorIPN3smt5enodeELb0EjE5emptyEv.exit1
  %14 = getelementptr inbounds nuw i8, ptr %0, i64 496
  %15 = load ptr, ptr %14, align 8, !tbaa !371
  %16 = icmp eq ptr %15, null
  br i1 %16, label %_ZNK6vectorIPN3smt5enodeELb0EjE5emptyEv.exit2.thread, label %_ZNK6vectorIPN3smt5enodeELb0EjE5emptyEv.exit2

_ZNK6vectorIPN3smt5enodeELb0EjE5emptyEv.exit2:    ; preds = %_ZNK6vectorIPN3smt5enodeELb0EjE5emptyEv.exit1.thread
  %17 = getelementptr inbounds i8, ptr %15, i64 -4
  %18 = load i32, ptr %17, align 4, !tbaa !336
  %19 = icmp eq i32 %18, 0
  br i1 %19, label %_ZNK6vectorIPN3smt5enodeELb0EjE5emptyEv.exit2.thread, label %_ZNK15ref_vector_coreI4expr19ref_manager_wrapperIS0_11ast_managerEE5emptyEv.exit5

_ZNK6vectorIPN3smt5enodeELb0EjE5emptyEv.exit2.thread: ; preds = %_ZNK6vectorIPN3smt5enodeELb0EjE5emptyEv.exit1.thread, %_ZNK6vectorIPN3smt5enodeELb0EjE5emptyEv.exit2
  %20 = getelementptr inbounds nuw i8, ptr %0, i64 520
  %21 = load ptr, ptr %20, align 8, !tbaa !371
  %22 = icmp eq ptr %21, null
  br i1 %22, label %_ZNK6vectorIPN3smt5enodeELb0EjE5emptyEv.exit3.thread, label %_ZNK6vectorIPN3smt5enodeELb0EjE5emptyEv.exit3

_ZNK6vectorIPN3smt5enodeELb0EjE5emptyEv.exit3:    ; preds = %_ZNK6vectorIPN3smt5enodeELb0EjE5emptyEv.exit2.thread
  %23 = getelementptr inbounds i8, ptr %21, i64 -4
  %24 = load i32, ptr %23, align 4, !tbaa !336
  %25 = icmp eq i32 %24, 0
  br i1 %25, label %_ZNK6vectorIPN3smt5enodeELb0EjE5emptyEv.exit3.thread, label %_ZNK15ref_vector_coreI4expr19ref_manager_wrapperIS0_11ast_managerEE5emptyEv.exit5

_ZNK6vectorIPN3smt5enodeELb0EjE5emptyEv.exit3.thread: ; preds = %_ZNK6vectorIPN3smt5enodeELb0EjE5emptyEv.exit2.thread, %_ZNK6vectorIPN3smt5enodeELb0EjE5emptyEv.exit3
  %26 = getelementptr inbounds nuw i8, ptr %0, i64 464
  %27 = load ptr, ptr %26, align 8, !tbaa !167
  %28 = icmp eq ptr %27, null
  br i1 %28, label %_ZNK15ref_vector_coreI4expr19ref_manager_wrapperIS0_11ast_managerEE5emptyEv.exit.thread, label %_ZNK15ref_vector_coreI4expr19ref_manager_wrapperIS0_11ast_managerEE5emptyEv.exit

_ZNK15ref_vector_coreI4expr19ref_manager_wrapperIS0_11ast_managerEE5emptyEv.exit: ; preds = %_ZNK6vectorIPN3smt5enodeELb0EjE5emptyEv.exit3.thread
  %29 = getelementptr inbounds i8, ptr %27, i64 -4
  %30 = load i32, ptr %29, align 4, !tbaa !336
  %31 = icmp eq i32 %30, 0
  br i1 %31, label %_ZNK15ref_vector_coreI4expr19ref_manager_wrapperIS0_11ast_managerEE5emptyEv.exit.thread, label %_ZNK15ref_vector_coreI4expr19ref_manager_wrapperIS0_11ast_managerEE5emptyEv.exit5

_ZNK15ref_vector_coreI4expr19ref_manager_wrapperIS0_11ast_managerEE5emptyEv.exit.thread: ; preds = %_ZNK6vectorIPN3smt5enodeELb0EjE5emptyEv.exit3.thread, %_ZNK15ref_vector_coreI4expr19ref_manager_wrapperIS0_11ast_managerEE5emptyEv.exit
  %32 = getelementptr inbounds nuw i8, ptr %0, i64 552
  %33 = load ptr, ptr %32, align 8, !tbaa !167
  %34 = icmp eq ptr %33, null
  br i1 %34, label %_ZNK15ref_vector_coreI4expr19ref_manager_wrapperIS0_11ast_managerEE5emptyEv.exit4.thread, label %_ZNK15ref_vector_coreI4expr19ref_manager_wrapperIS0_11ast_managerEE5emptyEv.exit4

_ZNK15ref_vector_coreI4expr19ref_manager_wrapperIS0_11ast_managerEE5emptyEv.exit4: ; preds = %_ZNK15ref_vector_coreI4expr19ref_manager_wrapperIS0_11ast_managerEE5emptyEv.exit.thread
  %35 = getelementptr inbounds i8, ptr %33, i64 -4
  %36 = load i32, ptr %35, align 4, !tbaa !336
  %37 = icmp eq i32 %36, 0
  br i1 %37, label %_ZNK15ref_vector_coreI4expr19ref_manager_wrapperIS0_11ast_managerEE5emptyEv.exit4.thread, label %_ZNK15ref_vector_coreI4expr19ref_manager_wrapperIS0_11ast_managerEE5emptyEv.exit5

_ZNK15ref_vector_coreI4expr19ref_manager_wrapperIS0_11ast_managerEE5emptyEv.exit4.thread: ; preds = %_ZNK15ref_vector_coreI4expr19ref_manager_wrapperIS0_11ast_managerEE5emptyEv.exit.thread, %_ZNK15ref_vector_coreI4expr19ref_manager_wrapperIS0_11ast_managerEE5emptyEv.exit4
  %38 = getelementptr inbounds nuw i8, ptr %0, i64 77
  %39 = load i8, ptr %38, align 1, !tbaa !145, !range !829, !noundef !830
  %40 = trunc nuw i8 %39 to i1
  br i1 %40, label %41, label %_ZNK15ref_vector_coreI4expr19ref_manager_wrapperIS0_11ast_managerEE5emptyEv.exit5

41:                                               ; preds = %_ZNK15ref_vector_coreI4expr19ref_manager_wrapperIS0_11ast_managerEE5emptyEv.exit4.thread
  %42 = getelementptr inbounds nuw i8, ptr %0, i64 512
  %43 = load ptr, ptr %42, align 8, !tbaa !167
  %44 = icmp eq ptr %43, null
  br i1 %44, label %_ZNK15ref_vector_coreI4expr19ref_manager_wrapperIS0_11ast_managerEE5emptyEv.exit5, label %45

45:                                               ; preds = %41
  %46 = getelementptr inbounds i8, ptr %43, i64 -4
  %47 = load i32, ptr %46, align 4, !tbaa !336
  %48 = icmp ne i32 %47, 0
  br label %_ZNK15ref_vector_coreI4expr19ref_manager_wrapperIS0_11ast_managerEE5emptyEv.exit5

_ZNK15ref_vector_coreI4expr19ref_manager_wrapperIS0_11ast_managerEE5emptyEv.exit5: ; preds = %45, %41, %_ZNK15ref_vector_coreI4expr19ref_manager_wrapperIS0_11ast_managerEE5emptyEv.exit4.thread, %_ZNK15ref_vector_coreI4expr19ref_manager_wrapperIS0_11ast_managerEE5emptyEv.exit4, %_ZNK15ref_vector_coreI4expr19ref_manager_wrapperIS0_11ast_managerEE5emptyEv.exit, %_ZNK6vectorIPN3smt5enodeELb0EjE5emptyEv.exit3, %_ZNK6vectorIPN3smt5enodeELb0EjE5emptyEv.exit2, %_ZNK6vectorIPN3smt5enodeELb0EjE5emptyEv.exit1, %_ZNK6vectorIPN3smt5enodeELb0EjE5emptyEv.exit
  %49 = phi i1 [ true, %_ZNK15ref_vector_coreI4expr19ref_manager_wrapperIS0_11ast_managerEE5emptyEv.exit4 ], [ true, %_ZNK15ref_vector_coreI4expr19ref_manager_wrapperIS0_11ast_managerEE5emptyEv.exit ], [ true, %_ZNK6vectorIPN3smt5enodeELb0EjE5emptyEv.exit3 ], [ true, %_ZNK6vectorIPN3smt5enodeELb0EjE5emptyEv.exit2 ], [ true, %_ZNK6vectorIPN3smt5enodeELb0EjE5emptyEv.exit1 ], [ true, %_ZNK6vectorIPN3smt5enodeELb0EjE5emptyEv.exit ], [ false, %_ZNK15ref_vector_coreI4expr19ref_manager_wrapperIS0_11ast_managerEE5emptyEv.exit4.thread ], [ false, %41 ], [ %48, %45 ]
  ret i1 %49
}